; Function Attrs: nounwind uwtable
define hidden float @SDL_GetDefaultSDRWhitePoint(i32 noundef %0) local_unnamed_addr #2 {
  %2 = lshr i32 %0, 5
  %3 = and i32 %2, 31
  switch i32 %3, label %SDL_GetSurfaceSDRWhitePoint.exit [
    i32 16, label %4
    i32 8, label %4
  ]

4:                                                ; preds = %1, %1
  %5 = icmp eq i32 %3, 16
  %.09.i = select i1 %5, float 2.030000e+02, float 1.000000e+00
  %6 = tail call float @SDL_GetFloatProperty_REAL(i32 noundef 0, ptr noundef nonnull @.str.6, float noundef %.09.i) #10
  br label %SDL_GetSurfaceSDRWhitePoint.exit

SDL_GetSurfaceSDRWhitePoint.exit:                 ; preds = %1, %4
  %.0.i = phi float [ %6, %4 ], [ 1.000000e+00, %1 ]
  ret float %.0.i
}